target datalayout = "e-m:e-p270:32:32-p271:32:32-p272:64:64-i64:64-i128:128-f80:128-n8:16:32:64-S128"
target triple = "x86_64-pc-linux-gnu"

%class.QFlags = type { i32 }
%class.QString = type { %struct.QArrayDataPointer }
%struct.QArrayDataPointer = type { ptr, ptr, i64 }
%class.EditorFileDialog = type <{ %class.QLineEdit, ptr, %class.QModelIndex, i32, [4 x i8], %class.QString, %class.QString, %class.QString, %class.QFlags, [4 x i8] }>
%class.QLineEdit = type { %class.QWidget }
%class.QWidget = type { %class.QObject, %class.QPaintDevice.base, ptr }
%class.QObject = type { ptr, %class.QScopedPointer }
%class.QScopedPointer = type { ptr }
%class.QPaintDevice.base = type <{ ptr, i16 }>
%class.QModelIndex = type { i32, i32, i64, ptr }
%class.QSize = type { i32, i32 }
%class.QRect = type { i32, i32, i32, i32 }
%class.QPoint = type { i32, i32 }
%class.QWidgetData = type { i64, i32, %class.QFlags.2, i32, %class.QRect, [4 x i8], %class.QPalette, %class.QFont, %class.QRect }
%class.QFlags.2 = type { i32 }
%class.QPalette = type <{ ptr, i32, [4 x i8] }>
%class.QFont = type <{ %class.QExplicitlySharedDataPointer, i32, [4 x i8] }>
%class.QExplicitlySharedDataPointer = type { ptr }

; Function Attrs: inlinehint mustprogress nounwind null_pointer_is_valid sspstrong uwtable
define linkonce_odr void @_ZN6QPointC2Eii(ptr noundef align 4 dereferenceable_or_null(8) %0, i32 noundef %1, i32 noundef %2) unnamed_addr #5 comdat align 2 {
  %4 = alloca ptr, align 8
  %5 = alloca i32, align 4
  %6 = alloca i32, align 4
  store ptr %0, ptr %4, align 8
  store i32 %1, ptr %5, align 4
  store i32 %2, ptr %6, align 4
  %7 = load ptr, ptr %4, align 8
  %8 = getelementptr inbounds nuw %class.QPoint, ptr %7, i32 0, i32 0
  %9 = load i32, ptr %5, align 4
  store i32 %9, ptr %8, align 4
  %10 = getelementptr inbounds nuw %class.QPoint, ptr %7, i32 0, i32 1
  %11 = load i32, ptr %6, align 4
  store i32 %11, ptr %10, align 4
  ret void
}

; Function Attrs: inlinehint mustprogress nounwind null_pointer_is_valid sspstrong uwtable
define linkonce_odr void @_ZN5QRectC2Eiiii(ptr noundef align 4 dereferenceable_or_null(16) %0, i32 noundef %1, i32 noundef %2, i32 noundef %3, i32 noundef %4) unnamed_addr #5 comdat align 2 {
  %6 = alloca ptr, align 8
  %7 = alloca i32, align 4
  %8 = alloca i32, align 4
  %9 = alloca i32, align 4
  %10 = alloca i32, align 4
  store ptr %0, ptr %6, align 8
  store i32 %1, ptr %7, align 4
  store i32 %2, ptr %8, align 4
  store i32 %3, ptr %9, align 4
  store i32 %4, ptr %10, align 4
  %11 = load ptr, ptr %6, align 8
  %12 = getelementptr inbounds nuw %class.QRect, ptr %11, i32 0, i32 0
  %13 = load i32, ptr %7, align 4
  store i32 %13, ptr %12, align 4
  %14 = getelementptr inbounds nuw %class.QRect, ptr %11, i32 0, i32 1
  %15 = load i32, ptr %8, align 4
  store i32 %15, ptr %14, align 4
  %16 = getelementptr inbounds nuw %class.QRect, ptr %11, i32 0, i32 2
  %17 = load i32, ptr %7, align 4
  %18 = load i32, ptr %9, align 4
  %19 = add i32 %17, %18
  %20 = sub i32 %19, 1
  store i32 %20, ptr %16, align 4
  %21 = getelementptr inbounds nuw %class.QRect, ptr %11, i32 0, i32 3
  %22 = load i32, ptr %8, align 4
  %23 = load i32, ptr %10, align 4
  %24 = add i32 %22, %23
  %25 = sub i32 %24, 1
  store i32 %25, ptr %21, align 4
  ret void
}

; Function Attrs: inlinehint mustprogress nounwind null_pointer_is_valid sspstrong uwtable
define linkonce_odr noundef i32 @_ZNK5QRect5widthEv(ptr noundef align 4 dereferenceable_or_null(16) %0) #5 comdat align 2 {
  %2 = alloca ptr, align 8
  store ptr %0, ptr %2, align 8
  %3 = load ptr, ptr %2, align 8
  %4 = getelementptr inbounds nuw %class.QRect, ptr %3, i32 0, i32 2
  %5 = load i32, ptr %4, align 4
  %6 = getelementptr inbounds nuw %class.QRect, ptr %3, i32 0, i32 0
  %7 = load i32, ptr %6, align 4
  %8 = sub i32 %5, %7
  %9 = add i32 %8, 1
  ret i32 %9
}

; Function Attrs: inlinehint mustprogress nounwind null_pointer_is_valid sspstrong uwtable
define linkonce_odr noundef i32 @_ZNK5QRect6heightEv(ptr noundef align 4 dereferenceable_or_null(16) %0) #5 comdat align 2 {
  %2 = alloca ptr, align 8
  store ptr %0, ptr %2, align 8
  %3 = load ptr, ptr %2, align 8
  %4 = getelementptr inbounds nuw %class.QRect, ptr %3, i32 0, i32 3
  %5 = load i32, ptr %4, align 4
  %6 = getelementptr inbounds nuw %class.QRect, ptr %3, i32 0, i32 1
  %7 = load i32, ptr %6, align 4
  %8 = sub i32 %5, %7
  %9 = add i32 %8, 1
  ret i32 %9
}

; Function Attrs: inlinehint mustprogress null_pointer_is_valid sspstrong uwtable
define linkonce_odr void @_ZN7QWidget4moveEii(ptr noundef align 8 dereferenceable_or_null(40) %0, i32 noundef %1, i32 noundef %2) #7 comdat align 2 {
  %4 = alloca ptr, align 8
  %5 = alloca i32, align 4
  %6 = alloca i32, align 4
  %7 = alloca %class.QPoint, align 4
  store ptr %0, ptr %4, align 8
  store i32 %1, ptr %5, align 4
  store i32 %2, ptr %6, align 4
  %8 = load ptr, ptr %4, align 8
  call void @llvm.lifetime.start.p0(i64 8, ptr %7) #12
  %9 = load i32, ptr %5, align 4
  %10 = load i32, ptr %6, align 4
  call void @_ZN6QPointC2Eii(ptr noundef align 4 dereferenceable_or_null(8) %7, i32 noundef %9, i32 noundef %10) #12
  call void @_ZN7QWidget4moveERK6QPoint(ptr noundef align 8 dereferenceable_or_null(40) %8, ptr noundef align 4 dereferenceable(8) %7)
  call void @llvm.lifetime.end.p0(i64 8, ptr %7) #12
  ret void
}

; Function Attrs: inlinehint mustprogress nounwind null_pointer_is_valid sspstrong uwtable
define linkonce_odr noundef i32 @_ZNK5QRect3topEv(ptr noundef align 4 dereferenceable_or_null(16) %0) #5 comdat align 2 {
  %2 = alloca ptr, align 8
  store ptr %0, ptr %2, align 8
  %3 = load ptr, ptr %2, align 8
  %4 = getelementptr inbounds nuw %class.QRect, ptr %3, i32 0, i32 1
  %5 = load i32, ptr %4, align 4
  ret i32 %5
}

; Function Attrs: inlinehint mustprogress nounwind null_pointer_is_valid sspstrong uwtable
define linkonce_odr noundef i32 @_ZNK5QSize5widthEv(ptr noundef align 4 dereferenceable_or_null(8) %0) #5 comdat align 2 {
  %2 = alloca ptr, align 8
  store ptr %0, ptr %2, align 8
  %3 = load ptr, ptr %2, align 8
  %4 = getelementptr inbounds nuw %class.QSize, ptr %3, i32 0, i32 0
  %5 = load i32, ptr %4, align 4
  ret i32 %5
}

; Function Attrs: inlinehint mustprogress nounwind null_pointer_is_valid sspstrong uwtable
define linkonce_odr noundef i32 @_ZNK5QRect5rightEv(ptr noundef align 4 dereferenceable_or_null(16) %0) #5 comdat align 2 {
  %2 = alloca ptr, align 8
  store ptr %0, ptr %2, align 8
  %3 = load ptr, ptr %2, align 8
  %4 = getelementptr inbounds nuw %class.QRect, ptr %3, i32 0, i32 2
  %5 = load i32, ptr %4, align 4
  ret i32 %5
}

; Function Attrs: inlinehint mustprogress nounwind null_pointer_is_valid sspstrong uwtable
define linkonce_odr { i64, i64 } @_ZNK7QWidget4rectEv(ptr noundef align 8 dereferenceable_or_null(40) %0) #5 comdat align 2 {
  %2 = alloca %class.QRect, align 4
  %3 = alloca ptr, align 8
  store ptr %0, ptr %3, align 8
  %4 = load ptr, ptr %3, align 8
  %5 = getelementptr inbounds nuw %class.QWidget, ptr %4, i32 0, i32 2
  %6 = load ptr, ptr %5, align 8
  %7 = getelementptr inbounds nuw %class.QWidgetData, ptr %6, i32 0, i32 4
  %8 = call noundef i32 @_ZNK5QRect5widthEv(ptr noundef align 4 dereferenceable_or_null(16) %7) #12
  %9 = getelementptr inbounds nuw %class.QWidget, ptr %4, i32 0, i32 2
  %10 = load ptr, ptr %9, align 8
  %11 = getelementptr inbounds nuw %class.QWidgetData, ptr %10, i32 0, i32 4
  %12 = call noundef i32 @_ZNK5QRect6heightEv(ptr noundef align 4 dereferenceable_or_null(16) %11) #12
  call void @_ZN5QRectC2Eiiii(ptr noundef align 4 dereferenceable_or_null(16) %2, i32 noundef 0, i32 noundef 0, i32 noundef %8, i32 noundef %12) #12
  %13 = load { i64, i64 }, ptr %2, align 4
  ret { i64, i64 } %13
}

; Function Attrs: mustprogress null_pointer_is_valid sspstrong uwtable
define void @_ZN16EditorFileDialog11resizeEventEP12QResizeEvent(ptr noundef align 8 dereferenceable_or_null(156) %0, ptr noundef %1) unnamed_addr #0 align 2 {
  %3 = alloca ptr, align 8
  %4 = alloca ptr, align 8
  %5 = alloca %class.QSize, align 4
  %6 = alloca i32, align 4
  %7 = alloca %class.QRect, align 4
  %8 = alloca %class.QRect, align 4
  %9 = alloca %class.QRect, align 4
  %10 = alloca %class.QRect, align 4
  store ptr %0, ptr %3, align 8
  store ptr %1, ptr %4, align 8
  %11 = load ptr, ptr %3, align 8
  call void @llvm.lifetime.start.p0(i64 8, ptr %5) #12
  %12 = getelementptr inbounds nuw %class.EditorFileDialog, ptr %11, i32 0, i32 1
  %13 = load ptr, ptr %12, align 8
  %14 = load ptr, ptr %13, align 8
  %15 = getelementptr inbounds ptr, ptr %14, i64 14
  %16 = load ptr, ptr %15, align 8
  %17 = call i64 %16(ptr noundef align 8 dereferenceable_or_null(40) %13)
  store i64 %17, ptr %5, align 4
  call void @llvm.lifetime.start.p0(i64 4, ptr %6) #12
  %18 = call noundef ptr @_ZNK7QWidget5styleEv(ptr noundef align 8 dereferenceable_or_null(40) %11)
  %19 = load ptr, ptr %18, align 8
  %20 = getelementptr inbounds ptr, ptr %19, i64 28
  %21 = load ptr, ptr %20, align 8
  %22 = call noundef i32 %21(ptr noundef align 8 dereferenceable_or_null(16) %18, i32 noundef 5, ptr noundef null, ptr noundef null)
  store i32 %22, ptr %6, align 4
  %23 = getelementptr inbounds nuw %class.EditorFileDialog, ptr %11, i32 0, i32 1
  %24 = load ptr, ptr %23, align 8
  call void @llvm.lifetime.start.p0(i64 16, ptr %7) #12
  %25 = call { i64, i64 } @_ZNK7QWidget4rectEv(ptr noundef align 8 dereferenceable_or_null(40) %11)
  %26 = getelementptr inbounds nuw { i64, i64 }, ptr %7, i32 0, i32 0
  %27 = extractvalue { i64, i64 } %25, 0
  store i64 %27, ptr %26, align 4
  %28 = getelementptr inbounds nuw { i64, i64 }, ptr %7, i32 0, i32 1
  %29 = extractvalue { i64, i64 } %25, 1
  store i64 %29, ptr %28, align 4
  %30 = call noundef i32 @_ZNK5QRect5rightEv(ptr noundef align 4 dereferenceable_or_null(16) %7) #12
  %31 = load i32, ptr %6, align 4
  %32 = sub i32 %30, %31
  %33 = call noundef i32 @_ZNK5QSize5widthEv(ptr noundef align 4 dereferenceable_or_null(8) %5) #12
  %34 = sub i32 %32, %33
  call void @llvm.lifetime.start.p0(i64 16, ptr %8) #12
  %35 = call { i64, i64 } @_ZNK7QWidget12contentsRectEv(ptr noundef align 8 dereferenceable_or_null(40) %11)
  %36 = getelementptr inbounds nuw { i64, i64 }, ptr %8, i32 0, i32 0
  %37 = extractvalue { i64, i64 } %35, 0
  store i64 %37, ptr %36, align 4
  %38 = getelementptr inbounds nuw { i64, i64 }, ptr %8, i32 0, i32 1
  %39 = extractvalue { i64, i64 } %35, 1
  store i64 %39, ptr %38, align 4
  %40 = call noundef i32 @_ZNK5QRect3topEv(ptr noundef align 4 dereferenceable_or_null(16) %8) #12
  call void @_ZN7QWidget4moveEii(ptr noundef align 8 dereferenceable_or_null(40) %24, i32 noundef %34, i32 noundef %40)
  call void @llvm.lifetime.end.p0(i64 16, ptr %8) #12
  call void @llvm.lifetime.end.p0(i64 16, ptr %7) #12
  %41 = getelementptr inbounds nuw %class.EditorFileDialog, ptr %11, i32 0, i32 1
  %42 = load ptr, ptr %41, align 8
  call void @llvm.lifetime.start.p0(i64 16, ptr %9) #12
  %43 = call { i64, i64 } @_ZNK7QWidget12contentsRectEv(ptr noundef align 8 dereferenceable_or_null(40) %11)
  %44 = getelementptr inbounds nuw { i64, i64 }, ptr %9, i32 0, i32 0
  %45 = extractvalue { i64, i64 } %43, 0
  store i64 %45, ptr %44, align 4
  %46 = getelementptr inbounds nuw { i64, i64 }, ptr %9, i32 0, i32 1
  %47 = extractvalue { i64, i64 } %43, 1
  store i64 %47, ptr %46, align 4
  %48 = call noundef i32 @_ZNK5QRect6heightEv(ptr noundef align 4 dereferenceable_or_null(16) %9) #12
  call void @_ZN7QWidget16setMinimumHeightEi(ptr noundef align 8 dereferenceable_or_null(40) %42, i32 noundef %48)
  call void @llvm.lifetime.end.p0(i64 16, ptr %9) #12
  %49 = getelementptr inbounds nuw %class.EditorFileDialog, ptr %11, i32 0, i32 1
  %50 = load ptr, ptr %49, align 8
  call void @llvm.lifetime.start.p0(i64 16, ptr %10) #12
  %51 = call { i64, i64 } @_ZNK7QWidget12contentsRectEv(ptr noundef align 8 dereferenceable_or_null(40) %11)
  %52 = getelementptr inbounds nuw { i64, i64 }, ptr %10, i32 0, i32 0
  %53 = extractvalue { i64, i64 } %51, 0
  store i64 %53, ptr %52, align 4
  %54 = getelementptr inbounds nuw { i64, i64 }, ptr %10, i32 0, i32 1
  %55 = extractvalue { i64, i64 } %51, 1
  store i64 %55, ptr %54, align 4
  %56 = call noundef i32 @_ZNK5QRect6heightEv(ptr noundef align 4 dereferenceable_or_null(16) %10) #12
  call void @_ZN7QWidget16setMaximumHeightEi(ptr noundef align 8 dereferenceable_or_null(40) %50, i32 noundef %56)
  call void @llvm.lifetime.end.p0(i64 16, ptr %10) #12
  call void @llvm.lifetime.end.p0(i64 4, ptr %6) #12
  call void @llvm.lifetime.end.p0(i64 8, ptr %5) #12
  ret void
}