; Function Attrs: mustprogress null_pointer_is_valid sspstrong uwtable
define void @_ZN16EditorFileDialog11resizeEventEP12QResizeEvent(ptr noundef align 8 dereferenceable_or_null(156) %0, ptr noundef readnone captures(none) %1) unnamed_addr #0 align 2 {
  %3 = alloca %class.QPoint, align 4
  %4 = getelementptr inbounds nuw i8, ptr %0, i64 40
  %5 = load ptr, ptr %4, align 8
  %6 = load ptr, ptr %5, align 8
  %7 = getelementptr inbounds nuw i8, ptr %6, i64 112
  %8 = load ptr, ptr %7, align 8
  %9 = tail call i64 %8(ptr noundef align 8 dereferenceable_or_null(40) %5)
  %.sroa.06.0.extract.trunc = trunc i64 %9 to i32
  %10 = tail call noundef ptr @_ZNK7QWidget5styleEv(ptr noundef align 8 dereferenceable_or_null(40) %0)
  %11 = load ptr, ptr %10, align 8
  %12 = getelementptr inbounds nuw i8, ptr %11, i64 224
  %13 = load ptr, ptr %12, align 8
  %14 = tail call noundef i32 %13(ptr noundef align 8 dereferenceable_or_null(16) %10, i32 noundef 5, ptr noundef null, ptr noundef null)
  %15 = load ptr, ptr %4, align 8
  %16 = getelementptr inbounds nuw i8, ptr %0, i64 32
  %17 = load ptr, ptr %16, align 8
  %18 = getelementptr inbounds nuw i8, ptr %17, i64 20
  %19 = getelementptr inbounds nuw i8, ptr %17, i64 28
  %20 = load i32, ptr %19, align 4
  %21 = load i32, ptr %18, align 4
  %22 = add i32 %14, %.sroa.06.0.extract.trunc
  %23 = add i32 %22, %21
  %24 = sub i32 %20, %23
  %25 = tail call { i64, i64 } @_ZNK7QWidget12contentsRectEv(ptr noundef align 8 dereferenceable_or_null(40) %0)
  %26 = extractvalue { i64, i64 } %25, 0
  %.sroa.03.4.extract.shift = lshr i64 %26, 32
  %.sroa.03.4.extract.trunc = trunc nuw i64 %.sroa.03.4.extract.shift to i32
  call void @llvm.lifetime.start.p0(i64 8, ptr nonnull %3) #12
  store i32 %24, ptr %3, align 4
  %27 = getelementptr inbounds nuw i8, ptr %3, i64 4
  store i32 %.sroa.03.4.extract.trunc, ptr %27, align 4
  call void @_ZN7QWidget4moveERK6QPoint(ptr noundef align 8 dereferenceable_or_null(40) %15, ptr noundef nonnull align 4 dereferenceable(8) %3)
  call void @llvm.lifetime.end.p0(i64 8, ptr nonnull %3) #12
  %28 = load ptr, ptr %4, align 8
  %29 = call { i64, i64 } @_ZNK7QWidget12contentsRectEv(ptr noundef align 8 dereferenceable_or_null(40) %0)
  %30 = extractvalue { i64, i64 } %29, 0
  %31 = extractvalue { i64, i64 } %29, 1
  %.sroa.42.12.extract.shift = lshr i64 %31, 32
  %.sroa.42.12.extract.trunc = trunc nuw i64 %.sroa.42.12.extract.shift to i32
  %.sroa.01.4.extract.shift = lshr i64 %30, 32
  %.sroa.01.4.extract.trunc = trunc nuw i64 %.sroa.01.4.extract.shift to i32
  %32 = add i32 %.sroa.42.12.extract.trunc, 1
  %33 = sub i32 %32, %.sroa.01.4.extract.trunc
  call void @_ZN7QWidget16setMinimumHeightEi(ptr noundef align 8 dereferenceable_or_null(40) %28, i32 noundef %33)
  %34 = load ptr, ptr %4, align 8
  %35 = call { i64, i64 } @_ZNK7QWidget12contentsRectEv(ptr noundef align 8 dereferenceable_or_null(40) %0)
  %36 = extractvalue { i64, i64 } %35, 0
  %37 = extractvalue { i64, i64 } %35, 1
  %.sroa.4.12.extract.shift = lshr i64 %37, 32
  %.sroa.4.12.extract.trunc = trunc nuw i64 %.sroa.4.12.extract.shift to i32
  %.sroa.0.4.extract.shift = lshr i64 %36, 32
  %.sroa.0.4.extract.trunc = trunc nuw i64 %.sroa.0.4.extract.shift to i32
  %38 = add i32 %.sroa.4.12.extract.trunc, 1
  %39 = sub i32 %38, %.sroa.0.4.extract.trunc
  call void @_ZN7QWidget16setMaximumHeightEi(ptr noundef align 8 dereferenceable_or_null(40) %34, i32 noundef %39)
  ret void
}